target datalayout = "e-m:e-p270:32:32-p271:32:32-p272:64:64-i64:64-i128:128-f80:128-n8:16:32:64-S128"
target triple = "x86_64-pc-linux-gnu"

%struct.AVProbeData = type { ptr, ptr, i32, ptr }

@amrwb_packed_size = internal constant [16 x i8] c"\12\18!%)/3;=\06\01\01\01\01\01\01", align 16

; Function Attrs: nounwind uwtable
define internal i32 @amrwb_probe(ptr noundef %0) #0 {
  %2 = alloca i32, align 4
  %3 = alloca ptr, align 8
  %4 = alloca i32, align 4
  %5 = alloca i32, align 4
  %6 = alloca i32, align 4
  %7 = alloca i32, align 4
  %8 = alloca ptr, align 8
  %9 = alloca i32, align 4
  %10 = alloca i32, align 4
  %11 = alloca i32, align 4
  store ptr %0, ptr %3, align 8, !tbaa !4
  call void @llvm.lifetime.start.p0(i64 4, ptr %4) #8
  call void @llvm.lifetime.start.p0(i64 4, ptr %5) #8
  store i32 0, ptr %5, align 4, !tbaa !31
  call void @llvm.lifetime.start.p0(i64 4, ptr %6) #8
  store i32 0, ptr %6, align 4, !tbaa !31
  call void @llvm.lifetime.start.p0(i64 4, ptr %7) #8
  store i32 0, ptr %7, align 4, !tbaa !31
  call void @llvm.lifetime.start.p0(i64 8, ptr %8) #8
  %12 = load ptr, ptr %3, align 8, !tbaa !4
  %13 = getelementptr inbounds nuw %struct.AVProbeData, ptr %12, i32 0, i32 1
  %14 = load ptr, ptr %13, align 8, !tbaa !9
  store ptr %14, ptr %8, align 8, !tbaa !65
  br label %15

15:                                               ; preds = %84, %1
  %16 = load i32, ptr %5, align 4, !tbaa !31
  %17 = load ptr, ptr %3, align 8, !tbaa !4
  %18 = getelementptr inbounds nuw %struct.AVProbeData, ptr %17, i32 0, i32 2
  %19 = load i32, ptr %18, align 8, !tbaa !66
  %20 = icmp slt i32 %16, %19
  br i1 %20, label %21, label %85

21:                                               ; preds = %15
  %22 = load ptr, ptr %8, align 8, !tbaa !65
  %23 = load i32, ptr %5, align 4, !tbaa !31
  %24 = sext i32 %23 to i64
  %25 = getelementptr inbounds i8, ptr %22, i64 %24
  %26 = load i8, ptr %25, align 1, !tbaa !48
  %27 = zext i8 %26 to i32
  %28 = ashr i32 %27, 3
  %29 = and i32 %28, 15
  store i32 %29, ptr %4, align 4, !tbaa !31
  %30 = load i32, ptr %4, align 4, !tbaa !31
  %31 = icmp slt i32 %30, 10
  br i1 %31, label %32, label %79

32:                                               ; preds = %21
  %33 = load ptr, ptr %8, align 8, !tbaa !65
  %34 = load i32, ptr %5, align 4, !tbaa !31
  %35 = sext i32 %34 to i64
  %36 = getelementptr inbounds i8, ptr %33, i64 %35
  %37 = load i8, ptr %36, align 1, !tbaa !48
  %38 = zext i8 %37 to i32
  %39 = and i32 %38, 4
  %40 = icmp eq i32 %39, 4
  br i1 %40, label %41, label %79

41:                                               ; preds = %32
  call void @llvm.lifetime.start.p0(i64 4, ptr %9) #8
  %42 = load ptr, ptr %8, align 8, !tbaa !65
  %43 = load i32, ptr %5, align 4, !tbaa !31
  %44 = sext i32 %43 to i64
  %45 = getelementptr inbounds i8, ptr %42, i64 %44
  %46 = load i8, ptr %45, align 1, !tbaa !48
  %47 = zext i8 %46 to i32
  store i32 %47, ptr %9, align 4, !tbaa !31
  call void @llvm.lifetime.start.p0(i64 4, ptr %10) #8
  %48 = load i32, ptr %4, align 4, !tbaa !31
  %49 = sext i32 %48 to i64
  %50 = getelementptr inbounds [16 x i8], ptr @amrwb_packed_size, i64 0, i64 %49
  %51 = load i8, ptr %50, align 1, !tbaa !48
  %52 = zext i8 %51 to i32
  store i32 %52, ptr %10, align 4, !tbaa !31
  br label %53

53:                                               ; preds = %68, %41
  %54 = load i32, ptr %10, align 4, !tbaa !31
  %55 = add nsw i32 %54, -1
  store i32 %55, ptr %10, align 4, !tbaa !31
  %56 = icmp ne i32 %54, 0
  br i1 %56, label %57, label %69

57:                                               ; preds = %53
  %58 = load ptr, ptr %8, align 8, !tbaa !65
  %59 = load i32, ptr %5, align 4, !tbaa !31
  %60 = add nsw i32 %59, 1
  store i32 %60, ptr %5, align 4, !tbaa !31
  %61 = sext i32 %60 to i64
  %62 = getelementptr inbounds i8, ptr %58, i64 %61
  %63 = load i8, ptr %62, align 1, !tbaa !48
  %64 = zext i8 %63 to i32
  %65 = load i32, ptr %9, align 4, !tbaa !31
  %66 = icmp ne i32 %64, %65
  br i1 %66, label %67, label %68

67:                                               ; preds = %57
  br label %69

68:                                               ; preds = %57
  br label %53, !llvm.loop !70

69:                                               ; preds = %67, %53
  %70 = load i32, ptr %10, align 4, !tbaa !31
  %71 = icmp sgt i32 %70, 0
  br i1 %71, label %72, label %78

72:                                               ; preds = %69
  %73 = load i32, ptr %6, align 4, !tbaa !31
  %74 = add nsw i32 %73, 1
  store i32 %74, ptr %6, align 4, !tbaa !31
  %75 = load i32, ptr %10, align 4, !tbaa !31
  %76 = load i32, ptr %5, align 4, !tbaa !31
  %77 = add nsw i32 %76, %75
  store i32 %77, ptr %5, align 4, !tbaa !31
  br label %78

78:                                               ; preds = %72, %69
  call void @llvm.lifetime.end.p0(i64 4, ptr %10) #8
  call void @llvm.lifetime.end.p0(i64 4, ptr %9) #8
  br label %84

79:                                               ; preds = %32, %21
  store i32 0, ptr %6, align 4, !tbaa !31
  %80 = load i32, ptr %7, align 4, !tbaa !31
  %81 = add nsw i32 %80, 1
  store i32 %81, ptr %7, align 4, !tbaa !31
  %82 = load i32, ptr %5, align 4, !tbaa !31
  %83 = add nsw i32 %82, 1
  store i32 %83, ptr %5, align 4, !tbaa !31
  br label %84

84:                                               ; preds = %79, %78
  br label %15, !llvm.loop !71

85:                                               ; preds = %15
  %86 = load i32, ptr %6, align 4, !tbaa !31
  %87 = icmp sgt i32 %86, 100
  br i1 %87, label %88, label %94

88:                                               ; preds = %85
  %89 = load i32, ptr %6, align 4, !tbaa !31
  %90 = ashr i32 %89, 4
  %91 = load i32, ptr %7, align 4, !tbaa !31
  %92 = icmp sgt i32 %90, %91
  br i1 %92, label %93, label %94

93:                                               ; preds = %88
  store i32 26, ptr %2, align 4
  store i32 1, ptr %11, align 4
  br label %95

94:                                               ; preds = %88, %85
  store i32 0, ptr %2, align 4
  store i32 1, ptr %11, align 4
  br label %95

95:                                               ; preds = %94, %93
  call void @llvm.lifetime.end.p0(i64 8, ptr %8) #8
  call void @llvm.lifetime.end.p0(i64 4, ptr %7) #8
  call void @llvm.lifetime.end.p0(i64 4, ptr %6) #8
  call void @llvm.lifetime.end.p0(i64 4, ptr %5) #8
  call void @llvm.lifetime.end.p0(i64 4, ptr %4) #8
  %96 = load i32, ptr %2, align 4
  ret i32 %96
}