; Function Attrs: nofree norecurse nosync nounwind memory(read, inaccessiblemem: none) uwtable
define internal range(i32 0, 27) i32 @amrwb_probe(ptr noundef readonly captures(none) %0) #3 {
  %2 = getelementptr inbounds nuw i8, ptr %0, i64 8
  %3 = load ptr, ptr %2, align 8, !tbaa !4
  %4 = getelementptr inbounds nuw i8, ptr %0, i64 16
  %5 = load i32, ptr %4, align 8, !tbaa !55
  %6 = icmp sgt i32 %5, 0
  br i1 %6, label %.lr.ph, label %._crit_edge

.lr.ph:                                           ; preds = %1, %32
  %.02539 = phi i32 [ %.4, %32 ], [ 0, %1 ]
  %.02638 = phi i32 [ %.127, %32 ], [ 0, %1 ]
  %.02837 = phi i32 [ %.230, %32 ], [ 0, %1 ]
  %7 = sext i32 %.02539 to i64
  %8 = getelementptr inbounds i8, ptr %3, i64 %7
  %9 = load i8, ptr %8, align 1, !tbaa !39
  %10 = zext i8 %9 to i32
  %11 = lshr i32 %10, 3
  %12 = and i32 %11, 15
  %13 = icmp samesign ugt i32 %12, 9
  %14 = and i32 %10, 4
  %.not = icmp eq i32 %14, 0
  %or.cond = or i1 %.not, %13
  br i1 %or.cond, label %29, label %15

15:                                               ; preds = %.lr.ph
  %16 = zext nneg i32 %12 to i64
  %17 = getelementptr inbounds nuw [16 x i8], ptr @amrwb_packed_size, i64 0, i64 %16
  %18 = load i8, ptr %17, align 1, !tbaa !39
  %19 = zext i8 %18 to i32
  %20 = add i32 %.02539, %19
  br label %21

21:                                               ; preds = %22, %15
  %indvars.iv = phi i64 [ %indvars.iv.next, %22 ], [ %7, %15 ]
  %.0 = phi i32 [ %23, %22 ], [ %19, %15 ]
  %.not33 = icmp eq i32 %.0, 0
  br i1 %.not33, label %.split.loop.exit42, label %22

22:                                               ; preds = %21
  %23 = add nsw i32 %.0, -1
  %indvars.iv.next = add nsw i64 %indvars.iv, 1
  %24 = getelementptr inbounds i8, ptr %3, i64 %indvars.iv.next
  %25 = load i8, ptr %24, align 1, !tbaa !39
  %.not34 = icmp eq i8 %25, %9
  br i1 %.not34, label %21, label %.split.loop.exit, !llvm.loop !59

.split.loop.exit:                                 ; preds = %22
  %indvars.le = trunc i64 %indvars.iv.next to i32
  br label %.split.loop.exit42

.split.loop.exit42:                               ; preds = %21, %.split.loop.exit
  %.lcssa = phi i32 [ %23, %.split.loop.exit ], [ -1, %21 ]
  %.2 = phi i32 [ %indvars.le, %.split.loop.exit ], [ %20, %21 ]
  %26 = icmp sgt i32 %.0, 1
  %27 = zext i1 %26 to i32
  %.129 = add nsw i32 %.02837, %27
  %28 = select i1 %26, i32 %.lcssa, i32 0
  %.3 = add nsw i32 %.2, %28
  br label %32

29:                                               ; preds = %.lr.ph
  %30 = add nsw i32 %.02638, 1
  %31 = add nsw i32 %.02539, 1
  br label %32

32:                                               ; preds = %29, %.split.loop.exit42
  %.230 = phi i32 [ %.129, %.split.loop.exit42 ], [ 0, %29 ]
  %.127 = phi i32 [ %.02638, %.split.loop.exit42 ], [ %30, %29 ]
  %.4 = phi i32 [ %.3, %.split.loop.exit42 ], [ %31, %29 ]
  %33 = icmp slt i32 %.4, %5
  br i1 %33, label %.lr.ph, label %._crit_edge, !llvm.loop !60

._crit_edge:                                      ; preds = %32, %1
  %.028.lcssa = phi i32 [ 0, %1 ], [ %.230, %32 ]
  %.026.lcssa = phi i32 [ 0, %1 ], [ %.127, %32 ]
  %34 = icmp sgt i32 %.028.lcssa, 100
  %35 = lshr i32 %.028.lcssa, 4
  %36 = icmp sgt i32 %35, %.026.lcssa
  %or.cond36 = select i1 %34, i1 %36, i1 false
  %.024 = select i1 %or.cond36, i32 26, i32 0
  ret i32 %.024
}